
_control_luz:

;GSM_MAIN.c,77 :: 		void control_luz(unsigned char valor_luz){
;GSM_MAIN.c,79 :: 		rb5_bit = valor_luz;
	BTFSC      FARG_control_luz_valor_luz+0, 0
	GOTO       L__control_luz40
	BCF        RB5_bit+0, BitPos(RB5_bit+0)
	GOTO       L__control_luz41
L__control_luz40:
	BSF        RB5_bit+0, BitPos(RB5_bit+0)
L__control_luz41:
;GSM_MAIN.c,81 :: 		}
L_end_control_luz:
	RETURN
; end of _control_luz

_control_alarma:

;GSM_MAIN.c,82 :: 		void control_alarma(unsigned char valor_alarma){
;GSM_MAIN.c,84 :: 		rb4_bit = valor_alarma;
	BTFSC      FARG_control_alarma_valor_alarma+0, 0
	GOTO       L__control_alarma43
	BCF        RB4_bit+0, BitPos(RB4_bit+0)
	GOTO       L__control_alarma44
L__control_alarma43:
	BSF        RB4_bit+0, BitPos(RB4_bit+0)
L__control_alarma44:
;GSM_MAIN.c,86 :: 		}
L_end_control_alarma:
	RETURN
; end of _control_alarma

_buscar_prefijo:

;GSM_MAIN.c,88 :: 		unsigned char buscar_prefijo (unsigned char *buffer ,unsigned char caracter){
;GSM_MAIN.c,106 :: 		unsigned char contador_de_letras = 0;
	CLRF       buscar_prefijo_contador_de_letras_L0+0
;GSM_MAIN.c,108 :: 		while (buffer[contador_de_letras+1] != caracter){
L_buscar_prefijo0:
	MOVF       buscar_prefijo_contador_de_letras_L0+0, 0
	ADDLW      1
	MOVWF      R0+0
	CLRF       R0+1
	BTFSC      STATUS+0, 0
	INCF       R0+1, 1
	MOVF       R0+0, 0
	ADDWF      FARG_buscar_prefijo_buffer+0, 0
	MOVWF      FSR
	MOVF       INDF+0, 0
	XORWF      FARG_buscar_prefijo_caracter+0, 0
	BTFSC      STATUS+0, 2
	GOTO       L_buscar_prefijo1
;GSM_MAIN.c,109 :: 		contador_de_letras ++;
	INCF       buscar_prefijo_contador_de_letras_L0+0, 1
;GSM_MAIN.c,110 :: 		}
	GOTO       L_buscar_prefijo0
L_buscar_prefijo1:
;GSM_MAIN.c,111 :: 		return contador_de_letras;
	MOVF       buscar_prefijo_contador_de_letras_L0+0, 0
	MOVWF      R0+0
;GSM_MAIN.c,113 :: 		}
L_end_buscar_prefijo:
	RETURN
; end of _buscar_prefijo

_setup_28a:

;GSM_MAIN.c,116 :: 		void setup_28a(void){
;GSM_MAIN.c,117 :: 		uart1_init(9600);
	MOVLW      25
	MOVWF      SPBRG+0
	BSF        TXSTA+0, 2
	CALL       _UART1_Init+0
;GSM_MAIN.c,118 :: 		CMcon =0x07;             // puertoa como entrada salida digital.... apago los comparadores;
	MOVLW      7
	MOVWF      CMCON+0
;GSM_MAIN.c,119 :: 		TRISB =0b00000010;
	MOVLW      2
	MOVWF      TRISB+0
;GSM_MAIN.c,120 :: 		TRISA =0b00000000;
	CLRF       TRISA+0
;GSM_MAIN.c,121 :: 		PORTA =0X00;
	CLRF       PORTA+0
;GSM_MAIN.c,122 :: 		PORTB = 0X00;
	CLRF       PORTB+0
;GSM_MAIN.c,124 :: 		GIE_BIT =1;  // HABILITO LAS INTERRUPCIONES GLOBALES
	BSF        GIE_bit+0, BitPos(GIE_bit+0)
;GSM_MAIN.c,125 :: 		PEIE_BIT =1;  // HABILITO LAS INTERRUPCIONES DE LOS PERIFERICOS
	BSF        PEIE_bit+0, BitPos(PEIE_bit+0)
;GSM_MAIN.c,126 :: 		RCIE_BIT =1;    // HABILITO LA INTERRUPCION DE "LLEGO UN DATO"
	BSF        RCIE_bit+0, BitPos(RCIE_bit+0)
;GSM_MAIN.c,128 :: 		PIR1.TMR1IF = 0;
	BCF        PIR1+0, 0
;GSM_MAIN.c,129 :: 		TMR1H = 0x00;
	CLRF       TMR1H+0
;GSM_MAIN.c,130 :: 		TMR1L = 0x00;
	CLRF       TMR1L+0
;GSM_MAIN.c,131 :: 		T1CON.TMR1CS = 0;
	BCF        T1CON+0, 1
;GSM_MAIN.c,132 :: 		T1CON.T1CKPS0 = 1;
	BSF        T1CON+0, 4
;GSM_MAIN.c,133 :: 		T1CON.T1CKPS1 = 1;
	BSF        T1CON+0, 5
;GSM_MAIN.c,134 :: 		PIE1.TMR1IE = 1 ;
	BSF        PIE1+0, 0
;GSM_MAIN.c,135 :: 		T1CON.TMR1ON = 1 ;
	BSF        T1CON+0, 0
;GSM_MAIN.c,142 :: 		}
L_end_setup_28a:
	RETURN
; end of _setup_28a

_asignar_flags:

;GSM_MAIN.c,144 :: 		void asignar_flags (unsigned char dato){
;GSM_MAIN.c,164 :: 		if (contador_de_caracteres == 0 && dato == '@'){flag_inicio = 1; uart1_write(dato); }
	MOVF       _contador_de_caracteres+0, 0
	XORLW      0
	BTFSS      STATUS+0, 2
	GOTO       L_asignar_flags4
	MOVF       FARG_asignar_flags_dato+0, 0
	XORLW      64
	BTFSS      STATUS+0, 2
	GOTO       L_asignar_flags4
L__asignar_flags36:
	MOVLW      1
	MOVWF      _flag_inicio+0
	MOVF       FARG_asignar_flags_dato+0, 0
	MOVWF      FARG_UART1_Write_data_+0
	CALL       _UART1_Write+0
L_asignar_flags4:
;GSM_MAIN.c,165 :: 		if (contador_de_caracteres >=3 && dato == '*'){flag_fin =1; flag_inicio = 0;}
	MOVLW      3
	SUBWF      _contador_de_caracteres+0, 0
	BTFSS      STATUS+0, 0
	GOTO       L_asignar_flags7
	MOVF       FARG_asignar_flags_dato+0, 0
	XORLW      42
	BTFSS      STATUS+0, 2
	GOTO       L_asignar_flags7
L__asignar_flags35:
	MOVLW      1
	MOVWF      _flag_fin+0
	CLRF       _flag_inicio+0
L_asignar_flags7:
;GSM_MAIN.c,168 :: 		}
L_end_asignar_flags:
	RETURN
; end of _asignar_flags

_convertir_string_a_numero:

;GSM_MAIN.c,170 :: 		unsigned char convertir_string_a_numero (unsigned char caracter){
;GSM_MAIN.c,182 :: 		if (caracter == 49)return 1;
	MOVF       FARG_convertir_string_a_numero_caracter+0, 0
	XORLW      49
	BTFSS      STATUS+0, 2
	GOTO       L_convertir_string_a_numero8
	MOVLW      1
	MOVWF      R0+0
	GOTO       L_end_convertir_string_a_numero
L_convertir_string_a_numero8:
;GSM_MAIN.c,183 :: 		if (caracter == 48) return 0;
	MOVF       FARG_convertir_string_a_numero_caracter+0, 0
	XORLW      48
	BTFSS      STATUS+0, 2
	GOTO       L_convertir_string_a_numero9
	CLRF       R0+0
	GOTO       L_end_convertir_string_a_numero
L_convertir_string_a_numero9:
;GSM_MAIN.c,184 :: 		}
L_end_convertir_string_a_numero:
	RETURN
; end of _convertir_string_a_numero

_cargar_buffer:

;GSM_MAIN.c,186 :: 		void cargar_buffer (unsigned char dato){
;GSM_MAIN.c,200 :: 		if ( contador_de_caracteres < lengt_buffer && flag_inicio == 1 ){
	MOVLW      20
	SUBWF      _contador_de_caracteres+0, 0
	BTFSC      STATUS+0, 0
	GOTO       L_cargar_buffer12
	MOVF       _flag_inicio+0, 0
	XORLW      1
	BTFSS      STATUS+0, 2
	GOTO       L_cargar_buffer12
L__cargar_buffer37:
;GSM_MAIN.c,202 :: 		RCIF_BIT = 0;
	BCF        RCIF_bit+0, BitPos(RCIF_bit+0)
;GSM_MAIN.c,203 :: 		buffer_uart[contador_de_caracteres] = dato ;
	MOVF       _contador_de_caracteres+0, 0
	ADDLW      _buffer_uart+0
	MOVWF      FSR
	MOVF       FARG_cargar_buffer_dato+0, 0
	MOVWF      INDF+0
;GSM_MAIN.c,204 :: 		contador_de_caracteres ++;
	INCF       _contador_de_caracteres+0, 1
;GSM_MAIN.c,209 :: 		}
L_cargar_buffer12:
;GSM_MAIN.c,211 :: 		}
L_end_cargar_buffer:
	RETURN
; end of _cargar_buffer

_mapear_caracteres:

;GSM_MAIN.c,220 :: 		unsigned char  mapear_caracteres (unsigned char valor, unsigned char *indice){
;GSM_MAIN.c,235 :: 		for (i = 0 ; i < sizeof (puntero_comando); i++){
	CLRF       _i+0
L_mapear_caracteres13:
	MOVLW      3
	SUBWF      _i+0, 0
	BTFSC      STATUS+0, 0
	GOTO       L_mapear_caracteres14
;GSM_MAIN.c,237 :: 		for (x=0 ; x <valor ; x++){
	CLRF       _x+0
L_mapear_caracteres16:
	MOVF       FARG_mapear_caracteres_valor+0, 0
	SUBWF      _x+0, 0
	BTFSC      STATUS+0, 0
	GOTO       L_mapear_caracteres17
;GSM_MAIN.c,240 :: 		if (puntero_comando[i][x] == indice[x+1]){
	MOVF       _i+0, 0
	ADDLW      _puntero_comando+0
	MOVWF      FSR
	MOVF       INDF+0, 0
	MOVWF      R0+0
	MOVF       _x+0, 0
	ADDWF      R0+0, 0
	MOVWF      FSR
	MOVF       INDF+0, 0
	MOVWF      R2+0
	MOVF       _x+0, 0
	ADDLW      1
	MOVWF      R0+0
	CLRF       R0+1
	BTFSC      STATUS+0, 0
	INCF       R0+1, 1
	MOVF       R0+0, 0
	ADDWF      FARG_mapear_caracteres_indice+0, 0
	MOVWF      FSR
	MOVF       R2+0, 0
	XORWF      INDF+0, 0
	BTFSS      STATUS+0, 2
	GOTO       L_mapear_caracteres19
;GSM_MAIN.c,241 :: 		cont2++;
	INCF       _cont2+0, 1
;GSM_MAIN.c,242 :: 		if (cont2== valor){
	MOVF       _cont2+0, 0
	XORWF      FARG_mapear_caracteres_valor+0, 0
	BTFSS      STATUS+0, 2
	GOTO       L_mapear_caracteres20
;GSM_MAIN.c,243 :: 		cont2=0;
	CLRF       _cont2+0
;GSM_MAIN.c,244 :: 		parametro = indice[valor +2];
	MOVLW      2
	ADDWF      FARG_mapear_caracteres_valor+0, 0
	MOVWF      R0+0
	CLRF       R0+1
	BTFSC      STATUS+0, 0
	INCF       R0+1, 1
	MOVF       R0+0, 0
	ADDWF      FARG_mapear_caracteres_indice+0, 0
	MOVWF      FSR
	MOVF       INDF+0, 0
	MOVWF      R0+0
	MOVF       R0+0, 0
	MOVWF      _parametro+0
;GSM_MAIN.c,245 :: 		parametro = convertir_string_a_numero(parametro);
	MOVF       R0+0, 0
	MOVWF      FARG_convertir_string_a_numero_caracter+0
	CALL       _convertir_string_a_numero+0
	MOVF       R0+0, 0
	MOVWF      _parametro+0
;GSM_MAIN.c,246 :: 		eeprom_write(i,parametro);
	MOVF       _i+0, 0
	MOVWF      FARG_EEPROM_Write_Address+0
	MOVF       R0+0, 0
	MOVWF      FARG_EEPROM_Write_data_+0
	CALL       _EEPROM_Write+0
;GSM_MAIN.c,247 :: 		ptr_funcion[i](parametro);
	MOVLW      3
	MOVWF      R0+0
	MOVF       _i+0, 0
	MOVWF      R4+0
	CALL       _Mul_8X8_U+0
	MOVF       R0+0, 0
	ADDLW      _ptr_funcion+0
	MOVWF      FSR
	MOVF       INDF+0, 0
	MOVWF      R0+0
	INCF       FSR, 1
	MOVF       INDF+0, 0
	MOVWF      R0+1
	INCF       FSR, 1
	MOVF       INDF+0, 0
	MOVWF      R0+2
	INCF       FSR, 1
	MOVF       INDF+0, 0
	MOVF       R0+2, 0
	MOVWF      FSR
	MOVF       _parametro+0, 0
	MOVWF      INDF+0
	INCF       FSR, 1
	MOVF       R0+0, 0
	MOVWF      ___DoICPAddr+0
	MOVF       R0+1, 0
	MOVWF      ___DoICPAddr+1
	CALL       _____DoIFC+0
;GSM_MAIN.c,248 :: 		memset (buffer_uart,'0',lengt_buffer);
	MOVLW      _buffer_uart+0
	MOVWF      FARG_memset_p1+0
	MOVLW      48
	MOVWF      FARG_memset_character+0
	MOVLW      20
	MOVWF      FARG_memset_n+0
	MOVLW      0
	MOVWF      FARG_memset_n+1
	CALL       _memset+0
;GSM_MAIN.c,249 :: 		flag_fin = 0;
	CLRF       _flag_fin+0
;GSM_MAIN.c,250 :: 		return 1;
	MOVLW      1
	MOVWF      R0+0
	GOTO       L_end_mapear_caracteres
;GSM_MAIN.c,251 :: 		}
L_mapear_caracteres20:
;GSM_MAIN.c,252 :: 		}
L_mapear_caracteres19:
;GSM_MAIN.c,237 :: 		for (x=0 ; x <valor ; x++){
	INCF       _x+0, 1
;GSM_MAIN.c,253 :: 		}
	GOTO       L_mapear_caracteres16
L_mapear_caracteres17:
;GSM_MAIN.c,235 :: 		for (i = 0 ; i < sizeof (puntero_comando); i++){
	INCF       _i+0, 1
;GSM_MAIN.c,254 :: 		}
	GOTO       L_mapear_caracteres13
L_mapear_caracteres14:
;GSM_MAIN.c,256 :: 		return 0;
	CLRF       R0+0
;GSM_MAIN.c,257 :: 		}
L_end_mapear_caracteres:
	RETURN
; end of _mapear_caracteres

_leer_buffer:

;GSM_MAIN.c,258 :: 		unsigned char leer_buffer () {
;GSM_MAIN.c,273 :: 		unsigned char cont_buff=0;
	CLRF       leer_buffer_cont_buff_L0+0
	MOVLW      10
	MOVWF      leer_buffer_cont_eeprom_L0+0
;GSM_MAIN.c,275 :: 		if (flag_fin ) {
	MOVF       _flag_fin+0, 0
	BTFSC      STATUS+0, 2
	GOTO       L_leer_buffer21
;GSM_MAIN.c,276 :: 		RCIF_BIT = 0;
	BCF        RCIF_bit+0, BitPos(RCIF_bit+0)
;GSM_MAIN.c,277 :: 		contador_de_caracteres = 0;
	CLRF       _contador_de_caracteres+0
;GSM_MAIN.c,280 :: 		indice = memchr (buffer_uart,':',lengt_buffer);
	MOVLW      _buffer_uart+0
	MOVWF      FARG_memchr_p+0
	MOVLW      58
	MOVWF      FARG_memchr_n+0
	MOVLW      20
	MOVWF      FARG_memchr_v+0
	MOVLW      0
	MOVWF      FARG_memchr_v+1
	CALL       _memchr+0
	MOVF       R0+0, 0
	MOVWF      _indice+0
;GSM_MAIN.c,281 :: 		if (indice != 0){
	MOVF       R0+0, 0
	XORLW      0
	BTFSC      STATUS+0, 2
	GOTO       L_leer_buffer22
;GSM_MAIN.c,283 :: 		for (i=1 ; i < 12 ; i++) {
	MOVLW      1
	MOVWF      leer_buffer_i_L0+0
L_leer_buffer23:
	MOVLW      12
	SUBWF      leer_buffer_i_L0+0, 0
	BTFSC      STATUS+0, 0
	GOTO       L_leer_buffer24
;GSM_MAIN.c,284 :: 		if (isdigit(indice [i]) && cont_buff <2 ){
	MOVF       leer_buffer_i_L0+0, 0
	ADDWF      _indice+0, 0
	MOVWF      FSR
	MOVF       INDF+0, 0
	MOVWF      FARG_isdigit_character+0
	CALL       _isdigit+0
	MOVF       R0+0, 0
	BTFSC      STATUS+0, 2
	GOTO       L_leer_buffer28
	MOVLW      2
	SUBWF      leer_buffer_cont_buff_L0+0, 0
	BTFSC      STATUS+0, 0
	GOTO       L_leer_buffer28
L__leer_buffer38:
;GSM_MAIN.c,285 :: 		buffer_conversion[cont_buff]=indice[i];
	MOVF       leer_buffer_cont_buff_L0+0, 0
	ADDLW      _buffer_conversion+0
	MOVWF      R1+0
	MOVF       leer_buffer_i_L0+0, 0
	ADDWF      _indice+0, 0
	MOVWF      FSR
	MOVF       INDF+0, 0
	MOVWF      R0+0
	MOVF       R1+0, 0
	MOVWF      FSR
	MOVF       R0+0, 0
	MOVWF      INDF+0
;GSM_MAIN.c,286 :: 		cont_buff++;
	INCF       leer_buffer_cont_buff_L0+0, 1
;GSM_MAIN.c,287 :: 		}
L_leer_buffer28:
;GSM_MAIN.c,288 :: 		if (cont_buff ==2){
	MOVF       leer_buffer_cont_buff_L0+0, 0
	XORLW      2
	BTFSS      STATUS+0, 2
	GOTO       L_leer_buffer29
;GSM_MAIN.c,289 :: 		conversion = atoi(buffer_conversion);
	MOVLW      _buffer_conversion+0
	MOVWF      FARG_atoi_s+0
	CALL       _atoi+0
	MOVF       R0+0, 0
	MOVWF      _conversion+0
	MOVF       R0+1, 0
	MOVWF      _conversion+1
;GSM_MAIN.c,290 :: 		eeprom_write(cont_eeprom,conversion);
	MOVF       leer_buffer_cont_eeprom_L0+0, 0
	MOVWF      FARG_EEPROM_Write_Address+0
	MOVF       R0+0, 0
	MOVWF      FARG_EEPROM_Write_data_+0
	CALL       _EEPROM_Write+0
;GSM_MAIN.c,291 :: 		delay_ms(50);
	MOVLW      65
	MOVWF      R12+0
	MOVLW      238
	MOVWF      R13+0
L_leer_buffer30:
	DECFSZ     R13+0, 1
	GOTO       L_leer_buffer30
	DECFSZ     R12+0, 1
	GOTO       L_leer_buffer30
	NOP
;GSM_MAIN.c,292 :: 		memset(buffer_conversion,'0',2);
	MOVLW      _buffer_conversion+0
	MOVWF      FARG_memset_p1+0
	MOVLW      48
	MOVWF      FARG_memset_character+0
	MOVLW      2
	MOVWF      FARG_memset_n+0
	MOVLW      0
	MOVWF      FARG_memset_n+1
	CALL       _memset+0
;GSM_MAIN.c,293 :: 		cont_eeprom ++;
	INCF       leer_buffer_cont_eeprom_L0+0, 1
;GSM_MAIN.c,294 :: 		cont_buff =0;
	CLRF       leer_buffer_cont_buff_L0+0
;GSM_MAIN.c,295 :: 		}
L_leer_buffer29:
;GSM_MAIN.c,296 :: 		if (cont_eeprom == 14){
	MOVF       leer_buffer_cont_eeprom_L0+0, 0
	XORLW      14
	BTFSS      STATUS+0, 2
	GOTO       L_leer_buffer31
;GSM_MAIN.c,297 :: 		cont_eeprom =10;
	MOVLW      10
	MOVWF      leer_buffer_cont_eeprom_L0+0
;GSM_MAIN.c,299 :: 		}
L_leer_buffer31:
;GSM_MAIN.c,283 :: 		for (i=1 ; i < 12 ; i++) {
	INCF       leer_buffer_i_L0+0, 1
;GSM_MAIN.c,300 :: 		}
	GOTO       L_leer_buffer23
L_leer_buffer24:
;GSM_MAIN.c,301 :: 		memset (buffer_uart,'0',lengt_buffer);
	MOVLW      _buffer_uart+0
	MOVWF      FARG_memset_p1+0
	MOVLW      48
	MOVWF      FARG_memset_character+0
	MOVLW      20
	MOVWF      FARG_memset_n+0
	MOVLW      0
	MOVWF      FARG_memset_n+1
	CALL       _memset+0
;GSM_MAIN.c,302 :: 		flag_fin = 0;
	CLRF       _flag_fin+0
;GSM_MAIN.c,303 :: 		}
	GOTO       L_leer_buffer32
L_leer_buffer22:
;GSM_MAIN.c,305 :: 		valor = buscar_prefijo (buffer_uart,'_');
	MOVLW      _buffer_uart+0
	MOVWF      FARG_buscar_prefijo_buffer+0
	MOVLW      95
	MOVWF      FARG_buscar_prefijo_caracter+0
	CALL       _buscar_prefijo+0
	MOVF       R0+0, 0
	MOVWF      _valor+0
;GSM_MAIN.c,306 :: 		mapear_caracteres (valor,buffer_uart);
	MOVF       R0+0, 0
	MOVWF      FARG_mapear_caracteres_valor+0
	MOVLW      _buffer_uart+0
	MOVWF      FARG_mapear_caracteres_indice+0
	CALL       _mapear_caracteres+0
;GSM_MAIN.c,307 :: 		}
L_leer_buffer32:
;GSM_MAIN.c,310 :: 		}
L_leer_buffer21:
;GSM_MAIN.c,312 :: 		}
L_end_leer_buffer:
	RETURN
; end of _leer_buffer

_main:

;GSM_MAIN.c,314 :: 		void main() {
;GSM_MAIN.c,315 :: 		setup_28a();
	CALL       _setup_28a+0
;GSM_MAIN.c,317 :: 		}
L_end_main:
	GOTO       $+0
; end of _main

_interrupt:
	MOVWF      R15+0
	SWAPF      STATUS+0, 0
	CLRF       STATUS+0
	MOVWF      ___saveSTATUS+0
	MOVF       PCLATH+0, 0
	MOVWF      ___savePCLATH+0
	CLRF       PCLATH+0

;GSM_MAIN.c,319 :: 		void interrupt (){
;GSM_MAIN.c,321 :: 		dato =  uart1_read();
	CALL       _UART1_Read+0
	MOVF       R0+0, 0
	MOVWF      _dato+0
;GSM_MAIN.c,322 :: 		asignar_flags(dato);
	MOVF       R0+0, 0
	MOVWF      FARG_asignar_flags_dato+0
	CALL       _asignar_flags+0
;GSM_MAIN.c,323 :: 		cargar_buffer(dato);
	MOVF       _dato+0, 0
	MOVWF      FARG_cargar_buffer_dato+0
	CALL       _cargar_buffer+0
;GSM_MAIN.c,324 :: 		leer_buffer();
	CALL       _leer_buffer+0
;GSM_MAIN.c,326 :: 		if (tmr1if_bit){
	BTFSS      TMR1IF_bit+0, BitPos(TMR1IF_bit+0)
	GOTO       L_interrupt33
;GSM_MAIN.c,329 :: 		rb7_bit ^=1;
	MOVLW
	XORWF      RB7_bit+0, 1
;GSM_MAIN.c,330 :: 		TMR1H = 0x00;
	CLRF       TMR1H+0
;GSM_MAIN.c,331 :: 		TMR1L = 0x00;
	CLRF       TMR1L+0
;GSM_MAIN.c,333 :: 		tmr1on_bit =0;
	BCF        TMR1ON_bit+0, BitPos(TMR1ON_bit+0)
;GSM_MAIN.c,334 :: 		delay_ms(500);
	MOVLW      3
	MOVWF      R11+0
	MOVLW      138
	MOVWF      R12+0
	MOVLW      85
	MOVWF      R13+0
L_interrupt34:
	DECFSZ     R13+0, 1
	GOTO       L_interrupt34
	DECFSZ     R12+0, 1
	GOTO       L_interrupt34
	DECFSZ     R11+0, 1
	GOTO       L_interrupt34
	NOP
	NOP
;GSM_MAIN.c,335 :: 		uart1_write (eeprom_read(10));
	MOVLW      10
	MOVWF      FARG_EEPROM_Read_Address+0
	CALL       _EEPROM_Read+0
	MOVF       R0+0, 0
	MOVWF      FARG_UART1_Write_data_+0
	CALL       _UART1_Write+0
;GSM_MAIN.c,337 :: 		tmr1on_bit =1;
	BSF        TMR1ON_bit+0, BitPos(TMR1ON_bit+0)
;GSM_MAIN.c,338 :: 		tmr1if_bit =0;
	BCF        TMR1IF_bit+0, BitPos(TMR1IF_bit+0)
;GSM_MAIN.c,341 :: 		}
L_interrupt33:
;GSM_MAIN.c,342 :: 		}
L_end_interrupt:
L__interrupt54:
	MOVF       ___savePCLATH+0, 0
	MOVWF      PCLATH+0
	SWAPF      ___saveSTATUS+0, 0
	MOVWF      STATUS+0
	SWAPF      R15+0, 1
	SWAPF      R15+0, 0
	RETFIE
; end of _interrupt
