
_control_luz:

;GSM_MAIN.c,83 :: 		void control_luz(unsigned char valor_luz){
;GSM_MAIN.c,85 :: 		rb5_bit = valor_luz;
	BTFSC      FARG_control_luz_valor_luz+0, 0
	GOTO       L__control_luz79
	BCF        RB5_bit+0, BitPos(RB5_bit+0)
	GOTO       L__control_luz80
L__control_luz79:
	BSF        RB5_bit+0, BitPos(RB5_bit+0)
L__control_luz80:
;GSM_MAIN.c,87 :: 		}
L_end_control_luz:
	RETURN
; end of _control_luz

_control_alarma:

;GSM_MAIN.c,88 :: 		void control_alarma(unsigned char valor_alarma){
;GSM_MAIN.c,90 :: 		rb4_bit = valor_alarma;
	BTFSC      FARG_control_alarma_valor_alarma+0, 0
	GOTO       L__control_alarma82
	BCF        RB4_bit+0, BitPos(RB4_bit+0)
	GOTO       L__control_alarma83
L__control_alarma82:
	BSF        RB4_bit+0, BitPos(RB4_bit+0)
L__control_alarma83:
;GSM_MAIN.c,92 :: 		}
L_end_control_alarma:
	RETURN
; end of _control_alarma

_buscar_prefijo:

;GSM_MAIN.c,94 :: 		unsigned char buscar_prefijo (unsigned char *buffer ,unsigned char caracter){
;GSM_MAIN.c,112 :: 		unsigned char contador_de_letras = 0;
	CLRF       buscar_prefijo_contador_de_letras_L0+0
;GSM_MAIN.c,114 :: 		while (buffer[contador_de_letras+1] != caracter){
L_buscar_prefijo0:
	MOVF       buscar_prefijo_contador_de_letras_L0+0, 0
	ADDLW      1
	MOVWF      R0+0
	CLRF       R0+1
	BTFSC      STATUS+0, 0
	INCF       R0+1, 1
	MOVF       R0+0, 0
	ADDWF      FARG_buscar_prefijo_buffer+0, 0
	MOVWF      FSR
	MOVF       INDF+0, 0
	XORWF      FARG_buscar_prefijo_caracter+0, 0
	BTFSC      STATUS+0, 2
	GOTO       L_buscar_prefijo1
;GSM_MAIN.c,115 :: 		contador_de_letras ++;
	INCF       buscar_prefijo_contador_de_letras_L0+0, 1
;GSM_MAIN.c,116 :: 		}
	GOTO       L_buscar_prefijo0
L_buscar_prefijo1:
;GSM_MAIN.c,117 :: 		return contador_de_letras;
	MOVF       buscar_prefijo_contador_de_letras_L0+0, 0
	MOVWF      R0+0
;GSM_MAIN.c,119 :: 		}
L_end_buscar_prefijo:
	RETURN
; end of _buscar_prefijo

_setup_28a:

;GSM_MAIN.c,122 :: 		void setup_28a(void){
;GSM_MAIN.c,123 :: 		uart1_init(9600);
	MOVLW      25
	MOVWF      SPBRG+0
	BSF        TXSTA+0, 2
	CALL       _UART1_Init+0
;GSM_MAIN.c,124 :: 		CMcon =0x07;             // puertoa como entrada salida digital.... apago los comparadores;
	MOVLW      7
	MOVWF      CMCON+0
;GSM_MAIN.c,125 :: 		TRISB =0b00000010;
	MOVLW      2
	MOVWF      TRISB+0
;GSM_MAIN.c,126 :: 		TRISA =0b00000000;
	CLRF       TRISA+0
;GSM_MAIN.c,127 :: 		PORTA =0X00;
	CLRF       PORTA+0
;GSM_MAIN.c,128 :: 		PORTB = 0X00;
	CLRF       PORTB+0
;GSM_MAIN.c,130 :: 		GIE_BIT =1;  // HABILITO LAS INTERRUPCIONES GLOBALES
	BSF        GIE_bit+0, BitPos(GIE_bit+0)
;GSM_MAIN.c,131 :: 		PEIE_BIT =1;  // HABILITO LAS INTERRUPCIONES DE LOS PERIFERICOS
	BSF        PEIE_bit+0, BitPos(PEIE_bit+0)
;GSM_MAIN.c,132 :: 		RCIE_BIT =1;    // HABILITO LA INTERRUPCION DE "LLEGO UN DATO"
	BSF        RCIE_bit+0, BitPos(RCIE_bit+0)
;GSM_MAIN.c,134 :: 		PIR1.TMR1IF = 0;
	BCF        PIR1+0, 0
;GSM_MAIN.c,135 :: 		TMR1H = 0x00;
	CLRF       TMR1H+0
;GSM_MAIN.c,136 :: 		TMR1L = 0x00;
	CLRF       TMR1L+0
;GSM_MAIN.c,137 :: 		T1CON.TMR1CS = 0;
	BCF        T1CON+0, 1
;GSM_MAIN.c,138 :: 		T1CON.T1CKPS0 = 1;
	BSF        T1CON+0, 4
;GSM_MAIN.c,139 :: 		T1CON.T1CKPS1 = 1;
	BSF        T1CON+0, 5
;GSM_MAIN.c,140 :: 		PIE1.TMR1IE = 1 ;
	BSF        PIE1+0, 0
;GSM_MAIN.c,141 :: 		T1CON.TMR1ON = 1 ;
	BSF        T1CON+0, 0
;GSM_MAIN.c,148 :: 		}
L_end_setup_28a:
	RETURN
; end of _setup_28a

_asignar_flags:

;GSM_MAIN.c,150 :: 		void asignar_flags (unsigned char dato){
;GSM_MAIN.c,170 :: 		if (contador_de_caracteres == 0 && (dato == '@' || dato == ',')){flag_inicio = 1;  }
	MOVF       _contador_de_caracteres+0, 0
	XORLW      0
	BTFSS      STATUS+0, 2
	GOTO       L_asignar_flags6
	MOVF       FARG_asignar_flags_dato+0, 0
	XORLW      64
	BTFSC      STATUS+0, 2
	GOTO       L__asignar_flags72
	MOVF       FARG_asignar_flags_dato+0, 0
	XORLW      44
	BTFSC      STATUS+0, 2
	GOTO       L__asignar_flags72
	GOTO       L_asignar_flags6
L__asignar_flags72:
L__asignar_flags71:
	MOVLW      1
	MOVWF      _flag_inicio+0
L_asignar_flags6:
;GSM_MAIN.c,171 :: 		if (contador_de_caracteres >=3 && (dato == '*' || dato == '+') ){flag_fin =1; flag_inicio = 0; }
	MOVLW      3
	SUBWF      _contador_de_caracteres+0, 0
	BTFSS      STATUS+0, 0
	GOTO       L_asignar_flags11
	MOVF       FARG_asignar_flags_dato+0, 0
	XORLW      42
	BTFSC      STATUS+0, 2
	GOTO       L__asignar_flags70
	MOVF       FARG_asignar_flags_dato+0, 0
	XORLW      43
	BTFSC      STATUS+0, 2
	GOTO       L__asignar_flags70
	GOTO       L_asignar_flags11
L__asignar_flags70:
L__asignar_flags69:
	MOVLW      1
	MOVWF      _flag_fin+0
	CLRF       _flag_inicio+0
L_asignar_flags11:
;GSM_MAIN.c,174 :: 		}
L_end_asignar_flags:
	RETURN
; end of _asignar_flags

_convertir_string_a_numero:

;GSM_MAIN.c,176 :: 		unsigned char convertir_string_a_numero (unsigned char caracter){
;GSM_MAIN.c,188 :: 		if (caracter == 49)return 1;
	MOVF       FARG_convertir_string_a_numero_caracter+0, 0
	XORLW      49
	BTFSS      STATUS+0, 2
	GOTO       L_convertir_string_a_numero12
	MOVLW      1
	MOVWF      R0+0
	GOTO       L_end_convertir_string_a_numero
L_convertir_string_a_numero12:
;GSM_MAIN.c,189 :: 		if (caracter == 48) return 0;
	MOVF       FARG_convertir_string_a_numero_caracter+0, 0
	XORLW      48
	BTFSS      STATUS+0, 2
	GOTO       L_convertir_string_a_numero13
	CLRF       R0+0
	GOTO       L_end_convertir_string_a_numero
L_convertir_string_a_numero13:
;GSM_MAIN.c,190 :: 		}
L_end_convertir_string_a_numero:
	RETURN
; end of _convertir_string_a_numero

_cargar_buffer:

;GSM_MAIN.c,192 :: 		void cargar_buffer (unsigned char dato){
;GSM_MAIN.c,206 :: 		if ( contador_de_caracteres < lengt_buffer && flag_inicio == 1 ){
	MOVLW      20
	SUBWF      _contador_de_caracteres+0, 0
	BTFSC      STATUS+0, 0
	GOTO       L_cargar_buffer16
	MOVF       _flag_inicio+0, 0
	XORLW      1
	BTFSS      STATUS+0, 2
	GOTO       L_cargar_buffer16
L__cargar_buffer73:
;GSM_MAIN.c,208 :: 		RCIF_BIT = 0;
	BCF        RCIF_bit+0, BitPos(RCIF_bit+0)
;GSM_MAIN.c,209 :: 		buffer_uart[contador_de_caracteres] = dato ;
	MOVF       _contador_de_caracteres+0, 0
	ADDLW      _buffer_uart+0
	MOVWF      FSR
	MOVF       FARG_cargar_buffer_dato+0, 0
	MOVWF      INDF+0
;GSM_MAIN.c,210 :: 		contador_de_caracteres ++;
	INCF       _contador_de_caracteres+0, 1
;GSM_MAIN.c,215 :: 		}
L_cargar_buffer16:
;GSM_MAIN.c,217 :: 		}
L_end_cargar_buffer:
	RETURN
; end of _cargar_buffer

_mapear_caracteres:

;GSM_MAIN.c,226 :: 		unsigned char  mapear_caracteres (unsigned char valor, unsigned char *indice){
;GSM_MAIN.c,241 :: 		for (i = 0 ; i < sizeof (puntero_comando); i++){
	CLRF       _i+0
L_mapear_caracteres17:
	MOVLW      3
	SUBWF      _i+0, 0
	BTFSC      STATUS+0, 0
	GOTO       L_mapear_caracteres18
;GSM_MAIN.c,243 :: 		for (x=0 ; x <valor ; x++){
	CLRF       _x+0
L_mapear_caracteres20:
	MOVF       FARG_mapear_caracteres_valor+0, 0
	SUBWF      _x+0, 0
	BTFSC      STATUS+0, 0
	GOTO       L_mapear_caracteres21
;GSM_MAIN.c,246 :: 		if (puntero_comando[i][x] == indice[x+1]){
	MOVF       _i+0, 0
	ADDLW      _puntero_comando+0
	MOVWF      FSR
	MOVF       INDF+0, 0
	MOVWF      R0+0
	MOVF       _x+0, 0
	ADDWF      R0+0, 0
	MOVWF      FSR
	MOVF       INDF+0, 0
	MOVWF      R2+0
	MOVF       _x+0, 0
	ADDLW      1
	MOVWF      R0+0
	CLRF       R0+1
	BTFSC      STATUS+0, 0
	INCF       R0+1, 1
	MOVF       R0+0, 0
	ADDWF      FARG_mapear_caracteres_indice+0, 0
	MOVWF      FSR
	MOVF       R2+0, 0
	XORWF      INDF+0, 0
	BTFSS      STATUS+0, 2
	GOTO       L_mapear_caracteres23
;GSM_MAIN.c,247 :: 		cont2++;
	INCF       _cont2+0, 1
;GSM_MAIN.c,248 :: 		if (cont2== valor){
	MOVF       _cont2+0, 0
	XORWF      FARG_mapear_caracteres_valor+0, 0
	BTFSS      STATUS+0, 2
	GOTO       L_mapear_caracteres24
;GSM_MAIN.c,249 :: 		cont2=0;
	CLRF       _cont2+0
;GSM_MAIN.c,250 :: 		parametro = indice[valor +2];
	MOVLW      2
	ADDWF      FARG_mapear_caracteres_valor+0, 0
	MOVWF      R0+0
	CLRF       R0+1
	BTFSC      STATUS+0, 0
	INCF       R0+1, 1
	MOVF       R0+0, 0
	ADDWF      FARG_mapear_caracteres_indice+0, 0
	MOVWF      FSR
	MOVF       INDF+0, 0
	MOVWF      R0+0
	MOVF       R0+0, 0
	MOVWF      _parametro+0
;GSM_MAIN.c,251 :: 		parametro = convertir_string_a_numero(parametro);
	MOVF       R0+0, 0
	MOVWF      FARG_convertir_string_a_numero_caracter+0
	CALL       _convertir_string_a_numero+0
	MOVF       R0+0, 0
	MOVWF      _parametro+0
;GSM_MAIN.c,252 :: 		eeprom_write(i,parametro);
	MOVF       _i+0, 0
	MOVWF      FARG_EEPROM_Write_Address+0
	MOVF       R0+0, 0
	MOVWF      FARG_EEPROM_Write_data_+0
	CALL       _EEPROM_Write+0
;GSM_MAIN.c,253 :: 		ptr_funcion[i](parametro);
	MOVLW      3
	MOVWF      R0+0
	MOVF       _i+0, 0
	MOVWF      R4+0
	CALL       _Mul_8X8_U+0
	MOVF       R0+0, 0
	ADDLW      _ptr_funcion+0
	MOVWF      FSR
	MOVF       INDF+0, 0
	MOVWF      R0+0
	INCF       FSR, 1
	MOVF       INDF+0, 0
	MOVWF      R0+1
	INCF       FSR, 1
	MOVF       INDF+0, 0
	MOVWF      R0+2
	INCF       FSR, 1
	MOVF       INDF+0, 0
	MOVF       R0+2, 0
	MOVWF      FSR
	MOVF       _parametro+0, 0
	MOVWF      INDF+0
	INCF       FSR, 1
	MOVF       R0+0, 0
	MOVWF      ___DoICPAddr+0
	MOVF       R0+1, 0
	MOVWF      ___DoICPAddr+1
	CALL       _____DoIFC+0
;GSM_MAIN.c,254 :: 		memset (buffer_uart,'0',lengt_buffer);
	MOVLW      _buffer_uart+0
	MOVWF      FARG_memset_p1+0
	MOVLW      48
	MOVWF      FARG_memset_character+0
	MOVLW      20
	MOVWF      FARG_memset_n+0
	MOVLW      0
	MOVWF      FARG_memset_n+1
	CALL       _memset+0
;GSM_MAIN.c,255 :: 		flag_fin = 0;
	CLRF       _flag_fin+0
;GSM_MAIN.c,256 :: 		return 1;
	MOVLW      1
	MOVWF      R0+0
	GOTO       L_end_mapear_caracteres
;GSM_MAIN.c,257 :: 		}
L_mapear_caracteres24:
;GSM_MAIN.c,258 :: 		}
L_mapear_caracteres23:
;GSM_MAIN.c,243 :: 		for (x=0 ; x <valor ; x++){
	INCF       _x+0, 1
;GSM_MAIN.c,259 :: 		}
	GOTO       L_mapear_caracteres20
L_mapear_caracteres21:
;GSM_MAIN.c,241 :: 		for (i = 0 ; i < sizeof (puntero_comando); i++){
	INCF       _i+0, 1
;GSM_MAIN.c,260 :: 		}
	GOTO       L_mapear_caracteres17
L_mapear_caracteres18:
;GSM_MAIN.c,262 :: 		return 0;
	CLRF       R0+0
;GSM_MAIN.c,263 :: 		}
L_end_mapear_caracteres:
	RETURN
; end of _mapear_caracteres

_validar_hora:

;GSM_MAIN.c,266 :: 		unsigned char validar_hora (unsigned char *buffer){
;GSM_MAIN.c,269 :: 		unsigned char i =0;
	CLRF       validar_hora_i_L0+0
	CLRF       validar_hora_contador_L0+0
	CLRF       validar_hora_contador_ok_L0+0
;GSM_MAIN.c,274 :: 		if (buffer [0] == ','){
	MOVF       FARG_validar_hora_buffer+0, 0
	MOVWF      FSR
	MOVF       INDF+0, 0
	XORLW      44
	BTFSS      STATUS+0, 2
	GOTO       L_validar_hora25
;GSM_MAIN.c,276 :: 		for   (i =1 ; i <6 ; i++){
	MOVLW      1
	MOVWF      validar_hora_i_L0+0
L_validar_hora26:
	MOVLW      6
	SUBWF      validar_hora_i_L0+0, 0
	BTFSC      STATUS+0, 0
	GOTO       L_validar_hora27
;GSM_MAIN.c,278 :: 		if (isdigit(buffer[i])  && contador <2 ){
	MOVF       validar_hora_i_L0+0, 0
	ADDWF      FARG_validar_hora_buffer+0, 0
	MOVWF      FSR
	MOVF       INDF+0, 0
	MOVWF      FARG_isdigit_character+0
	CALL       _isdigit+0
	MOVF       R0+0, 0
	BTFSC      STATUS+0, 2
	GOTO       L_validar_hora31
	MOVLW      2
	SUBWF      validar_hora_contador_L0+0, 0
	BTFSC      STATUS+0, 0
	GOTO       L_validar_hora31
L__validar_hora76:
;GSM_MAIN.c,279 :: 		buffer_conversion_2[contador]=buffer[i];
	MOVF       validar_hora_contador_L0+0, 0
	ADDLW      _buffer_conversion_2+0
	MOVWF      R1+0
	MOVF       validar_hora_i_L0+0, 0
	ADDWF      FARG_validar_hora_buffer+0, 0
	MOVWF      FSR
	MOVF       INDF+0, 0
	MOVWF      R0+0
	MOVF       R1+0, 0
	MOVWF      FSR
	MOVF       R0+0, 0
	MOVWF      INDF+0
;GSM_MAIN.c,280 :: 		contador++;
	INCF       validar_hora_contador_L0+0, 1
;GSM_MAIN.c,282 :: 		}
L_validar_hora31:
;GSM_MAIN.c,283 :: 		if (contador == 2 ){
	MOVF       validar_hora_contador_L0+0, 0
	XORLW      2
	BTFSS      STATUS+0, 2
	GOTO       L_validar_hora32
;GSM_MAIN.c,284 :: 		conversion_2[contador_ok] = atoi(buffer_conversion_2);
	MOVF       validar_hora_contador_ok_L0+0, 0
	ADDLW      _conversion_2+0
	MOVWF      FLOC__validar_hora+0
	MOVLW      _buffer_conversion_2+0
	MOVWF      FARG_atoi_s+0
	CALL       _atoi+0
	MOVF       FLOC__validar_hora+0, 0
	MOVWF      FSR
	MOVF       R0+0, 0
	MOVWF      INDF+0
;GSM_MAIN.c,285 :: 		memset(buffer_conversion,'0',2);
	MOVLW      _buffer_conversion+0
	MOVWF      FARG_memset_p1+0
	MOVLW      48
	MOVWF      FARG_memset_character+0
	MOVLW      2
	MOVWF      FARG_memset_n+0
	MOVLW      0
	MOVWF      FARG_memset_n+1
	CALL       _memset+0
;GSM_MAIN.c,286 :: 		contador_ok++;
	INCF       validar_hora_contador_ok_L0+0, 1
;GSM_MAIN.c,287 :: 		contador =0;
	CLRF       validar_hora_contador_L0+0
;GSM_MAIN.c,288 :: 		}
L_validar_hora32:
;GSM_MAIN.c,289 :: 		if  (contador_ok == 2 && activado ==0){
	MOVF       validar_hora_contador_ok_L0+0, 0
	XORLW      2
	BTFSS      STATUS+0, 2
	GOTO       L_validar_hora35
	MOVF       _activado+0, 0
	XORLW      0
	BTFSS      STATUS+0, 2
	GOTO       L_validar_hora35
L__validar_hora75:
;GSM_MAIN.c,290 :: 		contador_ok =0;
	CLRF       validar_hora_contador_ok_L0+0
;GSM_MAIN.c,291 :: 		for (i = 0; i <2 ; i++){
	CLRF       validar_hora_i_L0+0
L_validar_hora36:
	MOVLW      2
	SUBWF      validar_hora_i_L0+0, 0
	BTFSC      STATUS+0, 0
	GOTO       L_validar_hora37
;GSM_MAIN.c,292 :: 		if (conversion_2[i] == eeprom_read(10+i)){
	MOVF       validar_hora_i_L0+0, 0
	ADDLW      _conversion_2+0
	MOVWF      FSR
	MOVF       INDF+0, 0
	MOVWF      FLOC__validar_hora+0
	MOVF       validar_hora_i_L0+0, 0
	ADDLW      10
	MOVWF      FARG_EEPROM_Read_Address+0
	CALL       _EEPROM_Read+0
	MOVF       FLOC__validar_hora+0, 0
	XORWF      R0+0, 0
	BTFSS      STATUS+0, 2
	GOTO       L_validar_hora39
;GSM_MAIN.c,293 :: 		contador_ok++;
	INCF       validar_hora_contador_ok_L0+0, 1
;GSM_MAIN.c,294 :: 		delay_ms(50);
	MOVLW      65
	MOVWF      R12+0
	MOVLW      238
	MOVWF      R13+0
L_validar_hora40:
	DECFSZ     R13+0, 1
	GOTO       L_validar_hora40
	DECFSZ     R12+0, 1
	GOTO       L_validar_hora40
	NOP
;GSM_MAIN.c,295 :: 		}
L_validar_hora39:
;GSM_MAIN.c,296 :: 		if (contador_ok ==2){contador_ok =0; rb5_bit =1; flag_fin = 0; activado=1; memset(buffer_uart,'0',lengt_buffer); break;}
	MOVF       validar_hora_contador_ok_L0+0, 0
	XORLW      2
	BTFSS      STATUS+0, 2
	GOTO       L_validar_hora41
	CLRF       validar_hora_contador_ok_L0+0
	BSF        RB5_bit+0, BitPos(RB5_bit+0)
	CLRF       _flag_fin+0
	MOVLW      1
	MOVWF      _activado+0
	MOVLW      _buffer_uart+0
	MOVWF      FARG_memset_p1+0
	MOVLW      48
	MOVWF      FARG_memset_character+0
	MOVLW      20
	MOVWF      FARG_memset_n+0
	MOVLW      0
	MOVWF      FARG_memset_n+1
	CALL       _memset+0
	GOTO       L_validar_hora37
L_validar_hora41:
;GSM_MAIN.c,291 :: 		for (i = 0; i <2 ; i++){
	INCF       validar_hora_i_L0+0, 1
;GSM_MAIN.c,297 :: 		}
	GOTO       L_validar_hora36
L_validar_hora37:
;GSM_MAIN.c,299 :: 		}
L_validar_hora35:
;GSM_MAIN.c,300 :: 		if  (contador_ok == 2 && activado ==1){
	MOVF       validar_hora_contador_ok_L0+0, 0
	XORLW      2
	BTFSS      STATUS+0, 2
	GOTO       L_validar_hora44
	MOVF       _activado+0, 0
	XORLW      1
	BTFSS      STATUS+0, 2
	GOTO       L_validar_hora44
L__validar_hora74:
;GSM_MAIN.c,301 :: 		contador_ok =0;
	CLRF       validar_hora_contador_ok_L0+0
;GSM_MAIN.c,302 :: 		for (i = 0; i <2 ; i++){
	CLRF       validar_hora_i_L0+0
L_validar_hora45:
	MOVLW      2
	SUBWF      validar_hora_i_L0+0, 0
	BTFSC      STATUS+0, 0
	GOTO       L_validar_hora46
;GSM_MAIN.c,303 :: 		if (conversion_2[i] == eeprom_read(12+i)){
	MOVF       validar_hora_i_L0+0, 0
	ADDLW      _conversion_2+0
	MOVWF      FSR
	MOVF       INDF+0, 0
	MOVWF      FLOC__validar_hora+0
	MOVF       validar_hora_i_L0+0, 0
	ADDLW      12
	MOVWF      FARG_EEPROM_Read_Address+0
	CALL       _EEPROM_Read+0
	MOVF       FLOC__validar_hora+0, 0
	XORWF      R0+0, 0
	BTFSS      STATUS+0, 2
	GOTO       L_validar_hora48
;GSM_MAIN.c,304 :: 		contador_ok++;
	INCF       validar_hora_contador_ok_L0+0, 1
;GSM_MAIN.c,305 :: 		delay_ms(50);
	MOVLW      65
	MOVWF      R12+0
	MOVLW      238
	MOVWF      R13+0
L_validar_hora49:
	DECFSZ     R13+0, 1
	GOTO       L_validar_hora49
	DECFSZ     R12+0, 1
	GOTO       L_validar_hora49
	NOP
;GSM_MAIN.c,306 :: 		}
L_validar_hora48:
;GSM_MAIN.c,307 :: 		if (contador_ok ==2){contador_ok =0; rb5_bit =0; flag_fin = 0; activado=0;memset(buffer_uart,'0',lengt_buffer); break;}
	MOVF       validar_hora_contador_ok_L0+0, 0
	XORLW      2
	BTFSS      STATUS+0, 2
	GOTO       L_validar_hora50
	CLRF       validar_hora_contador_ok_L0+0
	BCF        RB5_bit+0, BitPos(RB5_bit+0)
	CLRF       _flag_fin+0
	CLRF       _activado+0
	MOVLW      _buffer_uart+0
	MOVWF      FARG_memset_p1+0
	MOVLW      48
	MOVWF      FARG_memset_character+0
	MOVLW      20
	MOVWF      FARG_memset_n+0
	MOVLW      0
	MOVWF      FARG_memset_n+1
	CALL       _memset+0
	GOTO       L_validar_hora46
L_validar_hora50:
;GSM_MAIN.c,302 :: 		for (i = 0; i <2 ; i++){
	INCF       validar_hora_i_L0+0, 1
;GSM_MAIN.c,308 :: 		}
	GOTO       L_validar_hora45
L_validar_hora46:
;GSM_MAIN.c,309 :: 		}
L_validar_hora44:
;GSM_MAIN.c,276 :: 		for   (i =1 ; i <6 ; i++){
	INCF       validar_hora_i_L0+0, 1
;GSM_MAIN.c,319 :: 		}
	GOTO       L_validar_hora26
L_validar_hora27:
;GSM_MAIN.c,320 :: 		}
	GOTO       L_validar_hora51
L_validar_hora25:
;GSM_MAIN.c,325 :: 		else {return 0 ;}
	CLRF       R0+0
	GOTO       L_end_validar_hora
L_validar_hora51:
;GSM_MAIN.c,327 :: 		}
L_end_validar_hora:
	RETURN
; end of _validar_hora

_leer_buffer:

;GSM_MAIN.c,328 :: 		unsigned char leer_buffer () {
;GSM_MAIN.c,343 :: 		unsigned char cont_buff=0;
	CLRF       leer_buffer_cont_buff_L0+0
	MOVLW      10
	MOVWF      leer_buffer_cont_eeprom_L0+0
;GSM_MAIN.c,345 :: 		if (flag_fin ) {
	MOVF       _flag_fin+0, 0
	BTFSC      STATUS+0, 2
	GOTO       L_leer_buffer52
;GSM_MAIN.c,346 :: 		RCIF_BIT = 0;
	BCF        RCIF_bit+0, BitPos(RCIF_bit+0)
;GSM_MAIN.c,347 :: 		contador_de_caracteres = 0;
	CLRF       _contador_de_caracteres+0
;GSM_MAIN.c,350 :: 		if (buffer_uart[0]== ','){ validar_hora(buffer_uart);}
	MOVF       _buffer_uart+0, 0
	XORLW      44
	BTFSS      STATUS+0, 2
	GOTO       L_leer_buffer53
	MOVLW      _buffer_uart+0
	MOVWF      FARG_validar_hora_buffer+0
	CALL       _validar_hora+0
	GOTO       L_leer_buffer54
L_leer_buffer53:
;GSM_MAIN.c,352 :: 		indice = memchr (buffer_uart,' ',lengt_buffer);
	MOVLW      _buffer_uart+0
	MOVWF      FARG_memchr_p+0
	MOVLW      32
	MOVWF      FARG_memchr_n+0
	MOVLW      20
	MOVWF      FARG_memchr_v+0
	MOVLW      0
	MOVWF      FARG_memchr_v+1
	CALL       _memchr+0
	MOVF       R0+0, 0
	MOVWF      _indice+0
;GSM_MAIN.c,353 :: 		if (indice != 0){
	MOVF       R0+0, 0
	XORLW      0
	BTFSC      STATUS+0, 2
	GOTO       L_leer_buffer55
;GSM_MAIN.c,355 :: 		for (i=1 ; i < 12 ; i++) {
	MOVLW      1
	MOVWF      leer_buffer_i_L0+0
L_leer_buffer56:
	MOVLW      12
	SUBWF      leer_buffer_i_L0+0, 0
	BTFSC      STATUS+0, 0
	GOTO       L_leer_buffer57
;GSM_MAIN.c,356 :: 		if (isdigit(indice [i]) && cont_buff <2 ){
	MOVF       leer_buffer_i_L0+0, 0
	ADDWF      _indice+0, 0
	MOVWF      FSR
	MOVF       INDF+0, 0
	MOVWF      FARG_isdigit_character+0
	CALL       _isdigit+0
	MOVF       R0+0, 0
	BTFSC      STATUS+0, 2
	GOTO       L_leer_buffer61
	MOVLW      2
	SUBWF      leer_buffer_cont_buff_L0+0, 0
	BTFSC      STATUS+0, 0
	GOTO       L_leer_buffer61
L__leer_buffer77:
;GSM_MAIN.c,357 :: 		buffer_conversion[cont_buff]=indice[i];
	MOVF       leer_buffer_cont_buff_L0+0, 0
	ADDLW      _buffer_conversion+0
	MOVWF      R1+0
	MOVF       leer_buffer_i_L0+0, 0
	ADDWF      _indice+0, 0
	MOVWF      FSR
	MOVF       INDF+0, 0
	MOVWF      R0+0
	MOVF       R1+0, 0
	MOVWF      FSR
	MOVF       R0+0, 0
	MOVWF      INDF+0
;GSM_MAIN.c,358 :: 		cont_buff++;
	INCF       leer_buffer_cont_buff_L0+0, 1
;GSM_MAIN.c,359 :: 		}
L_leer_buffer61:
;GSM_MAIN.c,360 :: 		if (cont_buff ==2){
	MOVF       leer_buffer_cont_buff_L0+0, 0
	XORLW      2
	BTFSS      STATUS+0, 2
	GOTO       L_leer_buffer62
;GSM_MAIN.c,361 :: 		conversion = atoi(buffer_conversion);
	MOVLW      _buffer_conversion+0
	MOVWF      FARG_atoi_s+0
	CALL       _atoi+0
	MOVF       R0+0, 0
	MOVWF      _conversion+0
	MOVF       R0+1, 0
	MOVWF      _conversion+1
;GSM_MAIN.c,362 :: 		eeprom_write(cont_eeprom,conversion);
	MOVF       leer_buffer_cont_eeprom_L0+0, 0
	MOVWF      FARG_EEPROM_Write_Address+0
	MOVF       R0+0, 0
	MOVWF      FARG_EEPROM_Write_data_+0
	CALL       _EEPROM_Write+0
;GSM_MAIN.c,363 :: 		delay_ms(50);
	MOVLW      65
	MOVWF      R12+0
	MOVLW      238
	MOVWF      R13+0
L_leer_buffer63:
	DECFSZ     R13+0, 1
	GOTO       L_leer_buffer63
	DECFSZ     R12+0, 1
	GOTO       L_leer_buffer63
	NOP
;GSM_MAIN.c,364 :: 		memset(buffer_conversion,'0',2);
	MOVLW      _buffer_conversion+0
	MOVWF      FARG_memset_p1+0
	MOVLW      48
	MOVWF      FARG_memset_character+0
	MOVLW      2
	MOVWF      FARG_memset_n+0
	MOVLW      0
	MOVWF      FARG_memset_n+1
	CALL       _memset+0
;GSM_MAIN.c,365 :: 		cont_eeprom ++;
	INCF       leer_buffer_cont_eeprom_L0+0, 1
;GSM_MAIN.c,366 :: 		cont_buff =0;
	CLRF       leer_buffer_cont_buff_L0+0
;GSM_MAIN.c,367 :: 		}
L_leer_buffer62:
;GSM_MAIN.c,368 :: 		if (cont_eeprom == 14){
	MOVF       leer_buffer_cont_eeprom_L0+0, 0
	XORLW      14
	BTFSS      STATUS+0, 2
	GOTO       L_leer_buffer64
;GSM_MAIN.c,369 :: 		cont_eeprom =10;
	MOVLW      10
	MOVWF      leer_buffer_cont_eeprom_L0+0
;GSM_MAIN.c,371 :: 		}
L_leer_buffer64:
;GSM_MAIN.c,355 :: 		for (i=1 ; i < 12 ; i++) {
	INCF       leer_buffer_i_L0+0, 1
;GSM_MAIN.c,372 :: 		}
	GOTO       L_leer_buffer56
L_leer_buffer57:
;GSM_MAIN.c,373 :: 		memset (buffer_uart,'0',lengt_buffer);
	MOVLW      _buffer_uart+0
	MOVWF      FARG_memset_p1+0
	MOVLW      48
	MOVWF      FARG_memset_character+0
	MOVLW      20
	MOVWF      FARG_memset_n+0
	MOVLW      0
	MOVWF      FARG_memset_n+1
	CALL       _memset+0
;GSM_MAIN.c,374 :: 		flag_fin = 0;
	CLRF       _flag_fin+0
;GSM_MAIN.c,375 :: 		}
	GOTO       L_leer_buffer65
L_leer_buffer55:
;GSM_MAIN.c,377 :: 		valor = buscar_prefijo (buffer_uart,'_');
	MOVLW      _buffer_uart+0
	MOVWF      FARG_buscar_prefijo_buffer+0
	MOVLW      95
	MOVWF      FARG_buscar_prefijo_caracter+0
	CALL       _buscar_prefijo+0
	MOVF       R0+0, 0
	MOVWF      _valor+0
;GSM_MAIN.c,378 :: 		mapear_caracteres (valor,buffer_uart);
	MOVF       R0+0, 0
	MOVWF      FARG_mapear_caracteres_valor+0
	MOVLW      _buffer_uart+0
	MOVWF      FARG_mapear_caracteres_indice+0
	CALL       _mapear_caracteres+0
;GSM_MAIN.c,379 :: 		}
L_leer_buffer65:
;GSM_MAIN.c,381 :: 		}
L_leer_buffer54:
;GSM_MAIN.c,382 :: 		}
L_leer_buffer52:
;GSM_MAIN.c,384 :: 		}
L_end_leer_buffer:
	RETURN
; end of _leer_buffer

_main:

;GSM_MAIN.c,386 :: 		void main() {
;GSM_MAIN.c,387 :: 		setup_28a();
	CALL       _setup_28a+0
;GSM_MAIN.c,389 :: 		}
L_end_main:
	GOTO       $+0
; end of _main

_interrupt:
	MOVWF      R15+0
	SWAPF      STATUS+0, 0
	CLRF       STATUS+0
	MOVWF      ___saveSTATUS+0
	MOVF       PCLATH+0, 0
	MOVWF      ___savePCLATH+0
	CLRF       PCLATH+0

;GSM_MAIN.c,391 :: 		void interrupt (){
;GSM_MAIN.c,393 :: 		if (uart1_data_ready()){
	CALL       _UART1_Data_Ready+0
	MOVF       R0+0, 0
	BTFSC      STATUS+0, 2
	GOTO       L_interrupt66
;GSM_MAIN.c,394 :: 		dato =  uart1_read();
	CALL       _UART1_Read+0
	MOVF       R0+0, 0
	MOVWF      _dato+0
;GSM_MAIN.c,395 :: 		asignar_flags(dato);
	MOVF       R0+0, 0
	MOVWF      FARG_asignar_flags_dato+0
	CALL       _asignar_flags+0
;GSM_MAIN.c,396 :: 		cargar_buffer(dato);
	MOVF       _dato+0, 0
	MOVWF      FARG_cargar_buffer_dato+0
	CALL       _cargar_buffer+0
;GSM_MAIN.c,397 :: 		leer_buffer();
	CALL       _leer_buffer+0
;GSM_MAIN.c,399 :: 		}
L_interrupt66:
;GSM_MAIN.c,401 :: 		if (tmr1if_bit){
	BTFSS      TMR1IF_bit+0, BitPos(TMR1IF_bit+0)
	GOTO       L_interrupt67
;GSM_MAIN.c,402 :: 		tmr1if_bit =0;
	BCF        TMR1IF_bit+0, BitPos(TMR1IF_bit+0)
;GSM_MAIN.c,403 :: 		TMR1H = 0x00;
	CLRF       TMR1H+0
;GSM_MAIN.c,404 :: 		TMR1L = 0x00;
	CLRF       TMR1L+0
;GSM_MAIN.c,405 :: 		contador_timer++;
	INCF       _contador_timer+0, 1
;GSM_MAIN.c,406 :: 		tmr1on_bit =1;
	BSF        TMR1ON_bit+0, BitPos(TMR1ON_bit+0)
;GSM_MAIN.c,407 :: 		if (contador_timer == 4){
	MOVF       _contador_timer+0, 0
	XORLW      4
	BTFSS      STATUS+0, 2
	GOTO       L_interrupt68
;GSM_MAIN.c,408 :: 		contador_timer =0;
	CLRF       _contador_timer+0
;GSM_MAIN.c,409 :: 		rb7_bit ^=1;
	MOVLW
	XORWF      RB7_bit+0, 1
;GSM_MAIN.c,412 :: 		}
L_interrupt68:
;GSM_MAIN.c,416 :: 		}
L_interrupt67:
;GSM_MAIN.c,417 :: 		}
L_end_interrupt:
L__interrupt94:
	MOVF       ___savePCLATH+0, 0
	MOVWF      PCLATH+0
	SWAPF      ___saveSTATUS+0, 0
	MOVWF      STATUS+0
	SWAPF      R15+0, 1
	SWAPF      R15+0, 0
	RETFIE
; end of _interrupt
